(i__main__
Perceptron
p0
(dp1
S'learning_rate'
p2
F0.0
sS'_outputs'
p3
(lp4
ccopy_reg
_reconstructor
p5
(c__main__
Neuron
p6
c__builtin__
object
p7
Ntp8
Rp9
(dp10
S'a'
p11
F-0.039171136230377185
sS'ni'
p12
I2
sS'c'
p13
(lp14
F-0.006167530778812892
aF0.0008884121588725189
aF-0.0058214546701063925
aF-0.006683143684596596
aF0.0008950439366783359
aF-0.0010341808424129963
aF0.004520217474818626
aF0.0002061838049988227
asS'weights'
p15
(lp16
F-1.7095599072769447
aF-0.6439015904927362
aF-0.4271426799418155
aF1.9252508601283103
aF-0.23437454980037162
aF0.37822520811068683
aF-0.11540759308324335
aF-0.0071135737115280775
asbag5
(g6
g7
Ntp17
Rp18
(dp19
g11
F0.025340682014290686
sg12
I2
sg13
(lp20
F0.00403362987902594
aF-0.0005810308788775723
aF0.0038072924706596943
aF0.004370846132558906
aF-0.0005853681311861459
aF0.00067636512826227
aF-0.0029562696839322477
aF-0.00013484637308524086
asg15
(lp21
F-0.060374057895996945
aF-0.23998188397558565
aF-1.3859627770126854
aF0.01659557379510226
aF-0.09521254435964498
aF-0.9914478368229293
aF-1.8130892445399385
aF0.6582390017484369
asbasS'_hiddens'
p22
(lp23
(lp24
g5
(g6
g7
Ntp25
Rp26
(dp27
g11
F-0.013922509879901939
sg12
I3
sg13
(lp28
F-0.003011032662521324
aF-0.002831150377417907
aF-0.002270791826320194
asg15
(lp29
F-0.41476718863878087
aF-0.3992008690948552
aF0.061632282087199466
asbag5
(g6
g7
Ntp30
Rp31
(dp32
g11
F0.002910365736659608
sg12
I3
sg13
(lp33
F0.0024754015615888556
aF0.0023275184466065328
aF0.0018668417991219348
asg15
(lp34
F0.9708761088696372
aF-0.21182835791820165
aF-0.8171528831819705
asbag5
(g6
g7
Ntp35
Rp36
(dp37
g11
F0.005835505276399386
sg12
I3
sg13
(lp38
F0.001503606133687845
aF0.0014137791083653098
aF0.0011339553239931308
asg15
(lp39
F0.7939425220876211
aF0.344503104388993
aF-1.068996171400557
asbag5
(g6
g7
Ntp40
Rp41
(dp42
g11
F-0.021662040033032036
sg12
I3
sg13
(lp43
F-0.0006058649086824249
aF-0.0005696698963883675
aF-0.00045691735583440815
asg15
(lp44
F2.1848510020785192
aF-1.4483437872780789
aF-2.6256692753343978
asbag5
(g6
g7
Ntp45
Rp46
(dp47
g11
F0.04092578532960983
sg12
I3
sg13
(lp48
F-0.0029023024598401137
aF-0.002728915832376516
aF-0.002188792166005688
asg15
(lp49
F2.0855665166118724
aF1.465126215377507
aF-1.692123706135692
asbag5
(g6
g7
Ntp50
Rp51
(dp52
g11
F-0.016497412748926396
sg12
I3
sg13
(lp53
F-0.0034725254990911713
aF-0.003265073142419175
aF-0.002618829950991553
asg15
(lp54
F-0.5080749822022006
aF0.08565399060982883
aF-0.6015409900310179
asbag5
(g6
g7
Ntp55
Rp56
(dp57
g11
F-0.075045467527273
sg12
I3
sg13
(lp58
F0.0008459668972552611
aF0.0007954279374843302
aF0.0006379919884416391
asg15
(lp59
F-2.493522575308363
aF1.1112493599623272
aF-3.40381580661519
asbag5
(g6
g7
Ntp60
Rp61
(dp62
g11
F0.013569461503393509
sg12
I3
sg13
(lp63
F0.0011049467789976226
aF0.0010389360863878258
aF0.0008333035192536235
asg15
(lp64
F-0.14678384425413568
aF0.8367737058690008
aF0.11241585324304526
asbaa(lp65
g5
(g6
g7
Ntp66
Rp67
(dp68
g11
F-0.15768285548784575
sg12
I8
sg13
(lp69
F0.0008866226268443333
aF-0.0001850018268011523
aF-0.00037130601063884165
aF0.0013795787893624398
aF-0.0026066288841497345
aF0.001050811890296286
aF0.004779721668623251
aF-0.0008644549746444155
asg15
(lp70
F0.5127390883907844
aF-0.45733014999037525
aF0.6218895150199006
aF-1.1920332263584947
aF2.2622115496175126
aF1.3390752255670046
aF3.4723424892109582
aF0.7444057919252959
asbag5
(g6
g7
Ntp71
Rp72
(dp73
g11
F0.022716949703009148
sg12
I8
sg13
(lp74
F0.00026506785576568316
aF-5.5308804510721645e-05
aF-0.0001110069663158143
aF0.0004124437844065114
aF-0.0007792870474754696
aF0.000314154462271381
aF0.001428962599756864
aF-0.00025844053557546286
asg15
(lp75
F-0.16921165376157776
aF-0.19365912368711058
aF0.006026437143754168
aF-0.45114274862406106
aF-0.19768462211205404
aF0.9928377418440816
aF-0.504783772438303
aF-0.16885671722026055
asbag5
(g6
g7
Ntp76
Rp77
(dp78
g11
F-0.14882679806696095
sg12
I8
sg13
(lp79
F-0.00025527712331375454
aF5.3265879669321075e-05
aF0.00010690673505858051
aF-0.0003972094711665283
aF0.000750502753872437
aF-0.0003025506324528097
aF-0.0013761814337508308
aF0.0002488945944758024
asg15
(lp80
F-0.8309400273701414
aF0.9602469528388087
aF0.05742964783843542
aF1.629759501803493
aF-1.6690959713958944
aF-0.4819767380250707
aF0.9506930049757444
aF0.17449435583825804
asbag5
(g6
g7
Ntp81
Rp82
(dp83
g11
F-0.17087132957106893
sg12
I8
sg13
(lp84
F-0.0010120307524841146
aF0.0002111693659960903
aF0.00042382530060861744
aF-0.0015747129816423289
aF0.0029753228839444483
aF-0.0011994437270802009
aF-0.005455788258165784
aF0.0009867276020146334
asg15
(lp85
F-1.3956747842706136
aF-0.10508076201432702
aF-0.03880074961535445
aF-0.7045773349155678
aF0.578785115218487
aF-1.350769813777196
aF3.7666718714728353
aF2.2089686523744563
asbag5
(g6
g7
Ntp86
Rp87
(dp88
g11
F0.022882519884377544
sg12
I8
sg13
(lp89
F9.357606029531693e-05
aF-1.9525490975911982e-05
aF-3.918843551649418e-05
aF0.00014560371466606576
aF-0.0002751092226225528
aF0.00011090494854093705
aF0.0005044621121951697
aF-9.123643857119267e-05
asg15
(lp90
F-0.6203571598284688
aF0.15253812474349407
aF0.6182532585676227
aF0.03425356195565382
aF0.6026333923616726
aF-0.655894404078133
aF0.6453009966405361
aF1.7600503797529257
asbag5
(g6
g7
Ntp91
Rp92
(dp93
g11
F-0.026410481660303537
sg12
I8
sg13
(lp94
F-0.0005585838743802241
aF0.00011655357539183393
aF0.00023392765278448463
aF-0.000869152717112135
aF0.0016422103577054283
aF-0.0006620252621068758
aF-0.003011287290987942
aF0.0005446179629802239
asg15
(lp95
F-0.009697671386249718
aF0.4234889314347368
aF1.8093604049044207
aF0.23756236686210513
aF-1.5480734343177507
aF0.32651370930439394
aF-0.5385814842638722
aF-0.35903723125809844
asbag5
(g6
g7
Ntp96
Rp97
(dp98
g11
F0.11561258542387935
sg12
I8
sg13
(lp99
F-0.0005749986178600688
aF0.00011997866002006183
aF0.00024080193360320683
aF-0.0008946939465506603
aF0.001690468932644757
aF-0.0006814797708263027
aF-0.0030997780453630628
aF0.0005606222992435202
asg15
(lp100
F-0.18258780530306723
aF1.1496554082081614
aF1.2238923316578691
aF-2.1373225011906483
aF1.1112765835863068
aF0.5033001159860192
aF-0.38959856563547773
aF-0.7083006456711817
asbag5
(g6
g7
Ntp101
Rp102
(dp103
g11
F0.005249065190400308
sg12
I8
sg13
(lp104
F0.0002382473318372666
aF-4.971245971611463e-05
aF-9.97748801479385e-05
aF0.0003707112312199034
aF-0.0007004359667076942
aF0.0002823671780372009
aF0.0012843749978807971
aF-0.00023229058786319905
asg15
(lp105
F0.6397064033526751
aF-1.5167376348709531
aF-0.16271356750941382
aF0.9697291519366488
aF0.3607916141695624
aF0.7358109765756182
aF-0.4514163442291905
aF0.29640583669016884
asbaasS'momentum'
p106
F0.1
sS'_inputs'
p107
(lp108
g5
(g6
g7
Ntp109
Rp110
(dp111
g11
F0.018723346305460627
sg12
I1
sg13
(lp112
F0.0
asg15
(lp113
F0.17716240512805398
asbag5
(g6
g7
Ntp114
Rp115
(dp116
g11
F0.017604793737057516
sg12
I1
sg13
(lp117
F0.0
asg15
(lp118
F-0.10367773922801776
asbag5
(g6
g7
Ntp119
Rp120
(dp121
g11
F0.014120345581439302
sg12
I1
sg13
(lp122
F0.0
asg15
(lp123
F0.08931868345497318
asbag5
(g6
g7
Ntp124
Rp125
(dp126
g11
F0.0
sg12
I1
sg13
(lp127
F0.0
asg15
(lp128
F1.0
asbasb.