(dp1
S'free'
p2
(lp3
sS'sequences'
p4
(lp5
(dp6
S'symbols'
p7
(lp8
S'poulailler_terrain_vide'
p9
ag9
ag9
aS'poulailler_terrain'
p10
ag10
ag10
ag10
ag10
ag10
ag10
ag10
ag10
ag9
ag9
ag10
ag10
ag10
ag10
ag10
ag10
ag10
ag10
ag10
ag10
aS'+'
ag9
ag9
ag9
ag10
ag10
ag10
ag10
ag10
ag10
ag10
ag10
ag10
ag9
ag9
ag10
ag10
ag10
ag10
ag10
ag10
ag10
ag10
ag10
ag10
aS'+'
ag9
ag9
ag9
ag10
ag10
ag10
ag10
ag10
ag10
ag10
ag10
ag10
ag9
ag9
ag10
ag10
ag10
ag10
ag10
ag10
ag10
ag10
ag10
ag10
aS'+'
ag9
ag9
ag9
ag10
ag10
ag10
ag10
ag10
ag10
ag10
ag10
ag10
ag9
ag9
ag10
ag10
ag10
ag10
ag10
ag10
ag10
ag10
ag10
ag10
aS'+'
ag9
ag9
ag9
ag10
ag10
ag10
ag10
ag10
ag10
ag10
ag10
ag10
ag9
ag9
ag10
ag10
ag10
ag10
ag10
ag10
ag10
ag10
ag10
ag10
aS'+'
ag9
ag9
ag9
ag10
ag10
ag10
ag10
ag10
ag10
ag10
ag10
ag10
ag9
ag9
ag10
ag10
ag10
ag10
ag10
ag10
ag10
ag10
ag10
ag10
aS'+'
ag9
ag9
ag9
ag10
ag10
ag10
ag10
ag10
ag10
ag10
ag10
ag10
ag9
ag9
ag10
ag10
ag10
ag10
ag10
ag10
ag10
ag10
ag10
ag10
aS'+'
ag9
ag9
ag9
ag10
ag10
ag10
ag10
ag10
ag10
ag10
ag10
ag10
ag9
ag9
ag10
ag10
ag10
ag10
ag10
ag10
ag10
ag10
ag10
ag10
aS'+'
ag9
ag9
ag9
ag10
ag10
ag10
ag10
ag10
ag10
ag10
ag10
ag10
ag9
ag9
ag10
ag10
ag10
ag10
ag10
ag10
ag10
ag10
ag10
ag10
aS'+'
ag9
ag9
ag9
ag10
ag10
ag10
ag10
ag10
ag10
ag10
ag10
ag10
ag9
ag9
ag10
ag10
ag10
ag10
ag10
ag10
ag10
ag10
ag10
ag10
aS'+'
ag9
ag9
ag9
ag10
ag10
ag10
ag10
ag10
ag10
ag10
ag10
ag10
ag9
ag9
ag10
ag10
ag10
ag10
ag10
ag10
ag10
ag10
ag10
ag10
aS'+'
ag9
ag9
ag9
ag10
ag10
ag10
ag10
ag10
ag10
ag10
ag10
ag10
ag9
ag9
ag10
ag10
ag10
ag10
ag10
ag10
ag10
ag10
ag10
ag10
aS'+'
ag9
ag9
ag9
ag10
ag10
ag10
ag10
ag10
ag10
ag10
ag10
ag10
ag9
ag9
ag10
ag10
ag10
ag10
ag10
ag10
ag10
ag10
ag10
ag10
aS'+'
ag9
ag9
ag9
ag10
ag10
ag10
ag10
ag10
ag10
ag10
ag10
ag10
ag9
ag9
ag10
ag10
ag10
ag10
ag10
ag10
ag10
ag10
ag10
ag10
aS'+'
ag9
ag9
ag9
ag10
ag10
ag10
ag10
ag10
ag10
ag10
ag10
ag10
ag9
ag9
ag10
ag10
ag10
ag10
ag10
ag10
ag10
ag10
ag10
ag10
aS'+'
ag9
ag9
ag9
ag10
ag10
ag10
ag10
ag10
ag10
ag10
ag10
ag10
ag9
ag9
ag10
ag10
ag10
ag10
ag10
ag10
ag10
ag10
ag10
ag10
aS'+'
ag9
ag9
ag9
ag10
ag10
ag10
ag10
ag10
ag10
ag10
ag10
ag10
ag9
ag9
ag10
ag10
ag10
ag10
ag10
ag10
ag10
ag10
ag10
ag10
aS'+'
ag9
ag9
ag9
ag10
ag10
ag10
ag10
ag10
ag10
ag10
ag10
ag10
ag9
ag9
ag10
ag10
ag10
ag10
ag10
ag10
ag10
ag10
ag10
ag10
aS'+'
ag9
ag9
ag9
ag10
ag10
ag10
ag10
ag10
ag10
ag10
ag10
ag10
ag9
ag9
ag10
ag10
ag10
ag10
ag10
ag10
ag10
ag10
ag10
ag10
aS'+'
ag9
ag9
ag9
ag10
ag10
ag10
ag10
ag10
ag10
ag10
ag10
ag10
ag9
ag9
ag10
ag10
ag10
ag10
ag10
ag10
ag10
ag10
ag10
ag10
aS'+'
ag9
ag9
ag9
ag10
ag10
ag10
ag10
ag10
ag10
ag10
ag10
ag10
ag9
ag9
ag10
ag10
ag10
ag10
ag10
ag10
ag10
ag10
ag10
ag10
aS'+'
ag9
ag9
ag9
ag10
ag10
ag10
ag10
ag10
ag10
ag10
ag10
ag10
ag9
ag9
ag10
ag10
ag10
ag10
ag10
ag10
ag10
ag10
ag10
ag10
aS'+'
ag9
ag9
ag9
ag10
ag10
ag10
ag10
ag10
ag10
ag10
ag10
ag10
ag9
ag9
ag10
ag10
ag10
ag10
ag10
ag10
ag10
ag10
ag10
ag10
aS'+'
ag9
ag9
ag9
ag10
ag10
ag10
ag10
ag10
ag10
ag10
ag10
ag10
ag9
ag9
ag10
ag10
ag10
ag10
ag10
ag10
ag10
ag10
ag10
ag10
aS'+'
ag9
ag9
ag9
ag10
ag10
ag10
ag10
ag10
ag10
ag10
ag10
ag10
ag9
ag9
ag10
ag10
ag10
ag10
ag10
ag10
ag10
ag10
ag10
ag10
aS'+'
ag9
ag9
ag9
ag10
ag10
ag10
ag10
ag10
ag10
ag10
ag10
ag10
ag9
ag9
ag10
ag10
ag10
ag10
ag10
ag10
ag10
ag10
ag10
ag10
aS'+'
ag9
ag9
ag9
ag10
ag10
ag10
ag10
ag10
ag10
ag10
ag10
ag10
ag9
ag9
ag10
ag10
ag10
ag10
ag10
ag10
ag10
ag10
ag10
ag10
aS'+'
ag9
ag9
ag9
ag10
ag10
ag10
ag10
ag10
ag10
ag10
ag10
ag10
ag9
ag9
ag10
ag10
ag10
ag10
ag10
ag10
ag10
ag10
ag10
ag10
aS'+'
ag9
ag9
ag9
ag10
ag10
ag10
ag10
ag10
ag10
ag10
ag10
ag10
ag9
ag9
ag10
ag10
ag10
ag10
ag10
ag10
ag10
ag10
ag10
ag10
aS'+'
ag9
ag9
ag9
ag10
ag10
ag10
ag10
ag10
ag10
ag10
ag10
ag10
ag9
ag9
ag10
ag10
ag10
ag10
ag10
ag10
ag10
ag10
ag10
ag10
aS'+'
ag9
ag9
ag9
ag10
ag10
ag10
ag10
ag10
ag10
ag10
ag10
ag10
ag9
ag9
ag10
ag10
ag10
ag10
ag10
ag10
ag10
ag10
ag10
ag10
aS'+'
ag9
ag9
ag9
ag10
ag10
ag10
ag10
ag10
ag10
ag10
ag10
ag10
ag9
ag9
ag10
ag10
ag10
ag10
ag10
ag10
ag10
ag10
ag10
ag10
aS'+'
asS'layer'
p11
I90
sS'location'
p12
(dp13
S'kind'
p14
S'absolute'
p15
sS'pos'
p16
(I0
I0
tp17
ssa(dp18
g7
(lp19
S'pan_pt_A'
p20
aS'pan_N2_A'
p21
aS'pan_N1_A'
p22
ag21
ag20
ag22
ag20
ag21
ag22
ag21
ag20
ag22
ag20
ag21
ag22
ag21
ag20
ag22
ag20
ag21
ag22
ag21
ag20
ag22
ag20
ag21
ag22
ag21
ag20
ag22
asg11
I150
sg12
(dp23
g14
g15
sg16
(I-90
I14
tp24
ssa(dp25
g7
(lp26
S'pan_pt_B'
p27
aS'pan_N2_B'
p28
aS'pan_N1_B'
p29
ag28
ag27
ag29
ag27
ag28
ag29
ag28
ag27
ag29
ag27
ag28
ag29
ag28
ag27
ag29
ag27
ag28
ag29
ag28
ag27
ag29
ag27
ag28
ag29
ag28
ag27
ag29
asg11
I95
sg12
(dp30
g14
S'cardinal'
p31
sg16
S'south'
p32
ssa(dp33
g7
(lp34
g20
ag22
ag21
ag20
ag21
ag22
ag21
ag20
ag22
ag21
ag20
ag21
ag22
ag21
ag20
ag22
ag21
ag20
ag21
ag22
ag21
ag20
ag22
ag21
ag20
ag21
ag22
ag21
ag20
ag22
ag21
ag20
ag21
ag22
ag21
asg11
I150
sg12
(dp35
g14
g15
sg16
(I-90
I580
tp36
ssa(dp37
g7
(lp38
g27
ag29
ag28
ag27
ag28
ag29
ag28
ag27
ag29
ag28
ag27
ag28
ag29
ag28
ag27
ag29
ag28
ag27
ag28
ag29
ag28
ag27
ag29
ag28
ag27
ag28
ag29
ag28
ag27
ag29
ag28
ag27
ag28
ag29
ag28
asg11
I95
sg12
(dp39
g14
g31
sg16
g32
ssas.