(dp1
S'free'
p2
(lp3
(dp4
S'symbol'
p5
S'cave_mid_45'
p6
sS'pos'
p7
(I451
I367
tp8
sS'layer'
p9
I50
sa(dp10
g5
g6
sg7
(I497
I413
tp11
sg9
I50
sasS'sequences'
p12
(lp13
(dp14
S'symbols'
p15
(lp16
S'_'
aS'cave_top'
p17
ag17
ag17
ag17
ag17
ag17
ag17
ag17
ag17
ag17
ag17
ag17
ag17
ag17
ag17
ag17
ag17
ag17
ag17
ag17
ag17
ag17
aS'_'
aS'cave_left'
p18
aS'cave_floor'
p19
ag19
ag19
ag19
ag19
ag19
ag19
ag19
ag19
ag19
ag19
ag19
ag19
ag19
ag19
ag19
ag19
ag19
ag19
ag19
ag19
ag19
aS'cave_right'
p20
ag18
ag19
ag19
ag19
ag19
ag19
ag19
ag19
ag19
ag19
ag19
ag19
ag19
ag19
ag19
ag19
ag19
ag19
ag19
ag19
ag19
ag19
ag19
ag20
ag18
ag19
ag19
ag19
ag19
ag19
ag19
ag19
ag19
ag19
ag19
ag19
ag19
ag19
ag19
ag19
ag19
ag19
ag19
ag19
ag19
ag19
ag19
ag20
ag18
ag19
ag19
ag19
ag19
ag19
ag19
ag19
ag19
ag19
ag19
ag19
ag19
ag19
ag19
ag19
ag19
ag19
ag19
ag19
ag19
ag19
ag19
ag20
ag18
ag19
ag19
ag19
ag19
ag19
ag19
ag19
ag19
ag19
ag19
ag19
ag19
ag19
ag19
ag19
ag19
ag19
ag19
ag19
ag19
ag19
ag19
ag20
ag18
ag19
ag19
ag19
ag19
ag19
ag19
ag19
ag19
ag19
ag19
ag19
ag19
ag19
ag19
ag19
ag19
ag19
ag19
ag19
ag19
ag19
ag19
ag20
ag18
ag19
ag19
ag19
ag19
ag19
ag19
ag19
ag19
ag19
ag19
ag19
ag19
ag19
ag19
ag19
ag19
ag19
ag19
ag19
ag19
ag19
ag19
ag20
ag18
ag19
ag19
ag19
ag19
ag19
ag19
ag19
ag19
ag19
ag19
ag19
ag19
ag19
ag19
ag19
ag19
ag19
ag19
ag19
ag19
ag19
ag19
ag20
ag18
ag19
ag19
ag19
ag19
ag19
ag19
ag19
ag19
ag19
ag19
ag19
ag19
ag19
ag19
ag19
ag19
ag19
ag19
ag19
ag19
ag19
ag19
ag20
ag18
ag19
ag19
ag19
ag19
ag19
ag19
ag19
ag19
ag19
ag19
ag19
ag19
ag19
ag19
ag19
ag19
ag19
ag19
ag19
ag19
ag19
ag19
ag20
ag18
ag19
ag19
ag19
ag19
ag19
ag19
ag19
ag19
ag19
ag19
ag19
ag19
ag19
ag19
ag19
ag19
ag19
ag19
ag19
ag19
ag19
ag19
ag20
ag18
ag19
ag19
ag19
ag19
ag19
ag19
ag19
ag19
ag19
ag19
ag19
ag19
ag19
ag19
ag19
ag19
ag19
ag19
ag19
ag19
ag19
ag19
ag20
aS'_'
aS'cave_bottom'
p21
ag21
ag21
ag21
ag21
ag21
ag21
ag21
ag21
ag21
ag21
ag21
ag21
ag21
ag21
ag21
ag21
ag21
ag21
ag21
ag21
ag21
aS'_'
asg9
I50
sS'block_size'
p22
(I37
I37
tp23
sS'location'
p24
(dp25
S'kind'
p26
S'absolute'
p27
sg7
(I55
I85
tp28
ssS'max_width'
p29
I24
sa(dp30
g15
(lp31
S'cave_mid_v'
p32
ag32
ag32
ag32
asg9
I50
sg22
(I11
I37
tp33
sg24
(dp34
g26
g27
sg7
(I273
I419
tp35
ssg29
I1
sa(dp36
g15
(lp37
g32
ag32
ag32
ag32
asg9
I50
sg22
(I11
I37
tp38
sg24
(dp39
g26
S'relative'
p40
sg7
(I111
I-298
tp41
ssg29
I1
sa(dp42
g15
(lp43
g32
ag32
ag32
ag32
asg9
I50
sg22
(I11
I37
tp44
sg24
(dp45
g26
g40
sg7
(I111
I298
tp46
ssg29
I1
sa(dp47
g15
(lp48
g32
ag32
ag32
ag32
asg9
I50
sg22
(I11
I37
tp49
sg24
(dp50
g26
g40
sg7
(I111
I-298
tp51
ssg29
I1
sa(dp52
g15
(lp53
g32
ag32
ag32
ag32
asg9
I50
sg22
(I11
I37
tp54
sg24
(dp55
g26
g40
sg7
(I111
I298
tp56
ssg29
I1
sas.