(dp1
S'free'
p2
(lp3
sS'sequences'
p4
(lp5
(dp6
S'symbols'
p7
(lp8
S'cave_mid_v'
p9
ag9
ag9
ag9
asS'layer'
p10
I50
sS'block_size'
p11
(I11
I37
tp12
sS'location'
p13
(dp14
S'kind'
p15
S'absolute'
p16
sS'pos'
p17
(I273
I419
tp18
ssS'max_width'
p19
I1
sa(dp20
g7
(lp21
g9
ag9
ag9
ag9
asg10
I50
sg11
(I11
I37
tp22
sg13
(dp23
g15
S'relative'
p24
sg17
(I111
I-298
tp25
ssg19
I1
sa(dp26
g7
(lp27
g9
ag9
ag9
ag9
asg10
I50
sg11
(I11
I37
tp28
sg13
(dp29
g15
g24
sg17
(I111
I298
tp30
ssg19
I1
sa(dp31
g7
(lp32
g9
ag9
ag9
ag9
asg10
I50
sg11
(I11
I37
tp33
sg13
(dp34
g15
g24
sg17
(I111
I-298
tp35
ssg19
I1
sa(dp36
g7
(lp37
g9
ag9
ag9
ag9
asg10
I50
sg11
(I11
I37
tp38
sg13
(dp39
g15
g24
sg17
(I111
I298
tp40
ssg19
I1
sas.